target datalayout = "e-m:e-p270:32:32-p271:32:32-p272:64:64-i64:64-i128:128-f80:128-n8:16:32:64-S128"
target triple = "x86_64-pc-linux-gnu"

%"class.cvc5::internal::NodeTemplate" = type { ptr }
%"class.cvc5::internal::expr::NodeValue" = type { i64, i64, ptr, [0 x ptr] }

; Function Attrs: inlinehint mustprogress nounwind uwtable
define linkonce_odr hidden void @_ZNK4cvc58internal12NodeTemplateILb0EE21assertTNodeNotExpiredEv(ptr noundef nonnull align 8 dereferenceable(8) %0) #8 comdat align 2 {
  %2 = alloca ptr, align 8
  store ptr %0, ptr %2, align 8, !tbaa !8
  ret void
}

; Function Attrs: inlinehint mustprogress nounwind uwtable
define linkonce_odr hidden noundef i32 @_ZNK4cvc58internal12NodeTemplateILb0EE7getKindEv(ptr noundef nonnull align 8 dereferenceable(8) %0) #8 comdat align 2 {
  %2 = alloca ptr, align 8
  store ptr %0, ptr %2, align 8, !tbaa !8
  %3 = load ptr, ptr %2, align 8
  call void @_ZNK4cvc58internal12NodeTemplateILb0EE21assertTNodeNotExpiredEv(ptr noundef nonnull align 8 dereferenceable(8) %3)
  %4 = getelementptr inbounds nuw %"class.cvc5::internal::NodeTemplate", ptr %3, i32 0, i32 0
  %5 = load ptr, ptr %4, align 8, !tbaa !18
  %6 = getelementptr inbounds nuw %"class.cvc5::internal::expr::NodeValue", ptr %5, i32 0, i32 1
  %7 = load i64, ptr %6, align 8
  %8 = and i64 %7, 1023
  %9 = trunc i64 %8 to i32
  ret i32 %9
}

; Function Attrs: mustprogress uwtable
define hidden noundef zeroext i1 @_ZN4cvc58internal14RtfTermContext21hasNestedTermChildrenENS0_12NodeTemplateILb0EEE(ptr noundef %0) #5 align 2 {
  %2 = alloca ptr, align 8
  %3 = alloca i32, align 4
  store ptr %0, ptr %2, align 8, !tbaa !8
  call void @llvm.lifetime.start.p0(i64 4, ptr %3) #3
  %4 = call noundef i32 @_ZNK4cvc58internal12NodeTemplateILb0EE7getKindEv(ptr noundef nonnull align 8 dereferenceable(8) %0)
  store i32 %4, ptr %3, align 4, !tbaa !16
  %5 = load i32, ptr %3, align 4, !tbaa !16
  %6 = call noundef i32 @_ZN4cvc58internal6theory14kindToTheoryIdENS0_4kind6Kind_tE(i32 noundef %5)
  %7 = icmp ne i32 %6, 1
  br i1 %7, label %8, label %23

8:                                                ; preds = %1
  %9 = load i32, ptr %3, align 4, !tbaa !16
  %10 = icmp ne i32 %9, 5
  br i1 %10, label %11, label %23

11:                                               ; preds = %8
  %12 = load i32, ptr %3, align 4, !tbaa !16
  %13 = icmp ne i32 %12, 249
  br i1 %13, label %14, label %23

14:                                               ; preds = %11
  %15 = load i32, ptr %3, align 4, !tbaa !16
  %16 = icmp ne i32 %15, 250
  br i1 %16, label %17, label %23

17:                                               ; preds = %14
  %18 = load i32, ptr %3, align 4, !tbaa !16
  %19 = icmp ne i32 %18, 251
  br i1 %19, label %20, label %23

20:                                               ; preds = %17
  %21 = load i32, ptr %3, align 4, !tbaa !16
  %22 = icmp ne i32 %21, 136
  br label %23

23:                                               ; preds = %20, %17, %14, %11, %8, %1
  %24 = phi i1 [ false, %17 ], [ false, %14 ], [ false, %11 ], [ false, %8 ], [ false, %1 ], [ %22, %20 ]
  call void @llvm.lifetime.end.p0(i64 4, ptr %3) #3
  ret i1 %24
}