; Function Attrs: mustprogress uwtable
define hidden noundef zeroext i1 @_ZN4cvc58internal14RtfTermContext21hasNestedTermChildrenENS0_12NodeTemplateILb0EEE(ptr noundef readonly captures(none) %0) local_unnamed_addr #4 align 2 {
  %2 = load ptr, ptr %0, align 8, !tbaa !3
  %3 = getelementptr inbounds nuw i8, ptr %2, i64 8
  %4 = load i64, ptr %3, align 8
  %5 = trunc i64 %4 to i32
  %6 = and i32 %5, 1023
  %7 = tail call noundef i32 @_ZN4cvc58internal6theory14kindToTheoryIdENS0_4kind6Kind_tE(i32 noundef %6)
  %8 = icmp ne i32 %7, 1
  %9 = icmp ne i32 %6, 5
  %or.cond = and i1 %8, %9
  %10 = add nsw i32 %6, -252
  %11 = icmp ult i32 %10, -3
  %or.cond7 = and i1 %or.cond, %11
  %12 = icmp ne i32 %6, 136
  %spec.select = and i1 %12, %or.cond7
  ret i1 %spec.select
}